; Function Attrs: mustprogress nounwind uwtable
define hidden void @_ZN4cvc58internal6theory11quantifiers12StrategyNodeD2Ev(ptr noundef nonnull align 8 captures(none) dereferenceable(24) %0) unnamed_addr #8 align 2 personality ptr @__gxx_personality_v0 {
  %2 = getelementptr inbounds nuw i8, ptr %0, i64 8
  %3 = load ptr, ptr %2, align 8, !tbaa !214
  %4 = load ptr, ptr %0, align 8, !tbaa !220
  %5 = ptrtoint ptr %3 to i64
  %6 = ptrtoint ptr %4 to i64
  %7 = sub i64 %5, %6
  %8 = and i64 %7, 34359738360
  %.not = icmp eq i64 %8, 0
  br i1 %.not, label %._crit_edge, label %.lr.ph.preheader

.lr.ph.preheader:                                 ; preds = %1
  %9 = lshr exact i64 %7, 3
  %wide.trip.count = and i64 %9, 4294967295
  br label %.lr.ph

._crit_edge.loopexit:                             ; preds = %24
  %.pre = load ptr, ptr %0, align 8, !tbaa !220
  %.pre7 = load ptr, ptr %2, align 8, !tbaa !214
  br label %._crit_edge

._crit_edge:                                      ; preds = %._crit_edge.loopexit, %1
  %10 = phi ptr [ %.pre7, %._crit_edge.loopexit ], [ %3, %1 ]
  %11 = phi ptr [ %.pre, %._crit_edge.loopexit ], [ %4, %1 ]
  %.not.i.i = icmp eq ptr %10, %11
  br i1 %.not.i.i, label %_ZNSt6vectorIPN4cvc58internal6theory11quantifiers17EnumTypeInfoStratESaIS5_EE5clearEv.exit, label %12

12:                                               ; preds = %._crit_edge
  store ptr %11, ptr %2, align 8, !tbaa !214
  br label %_ZNSt6vectorIPN4cvc58internal6theory11quantifiers17EnumTypeInfoStratESaIS5_EE5clearEv.exit

_ZNSt6vectorIPN4cvc58internal6theory11quantifiers17EnumTypeInfoStratESaIS5_EE5clearEv.exit: ; preds = %._crit_edge, %12
  %.not.i.i.i = icmp eq ptr %11, null
  br i1 %.not.i.i.i, label %_ZNSt6vectorIPN4cvc58internal6theory11quantifiers17EnumTypeInfoStratESaIS5_EED2Ev.exit, label %13

13:                                               ; preds = %_ZNSt6vectorIPN4cvc58internal6theory11quantifiers17EnumTypeInfoStratESaIS5_EE5clearEv.exit
  %14 = getelementptr inbounds nuw i8, ptr %0, i64 16
  %15 = load ptr, ptr %14, align 8, !tbaa !217
  %16 = ptrtoint ptr %15 to i64
  %17 = ptrtoint ptr %11 to i64
  %18 = sub i64 %16, %17
  tail call void @_ZdlPvm(ptr noundef nonnull %11, i64 noundef %18) #28
  br label %_ZNSt6vectorIPN4cvc58internal6theory11quantifiers17EnumTypeInfoStratESaIS5_EED2Ev.exit

_ZNSt6vectorIPN4cvc58internal6theory11quantifiers17EnumTypeInfoStratESaIS5_EED2Ev.exit: ; preds = %_ZNSt6vectorIPN4cvc58internal6theory11quantifiers17EnumTypeInfoStratESaIS5_EE5clearEv.exit, %13
  ret void

.lr.ph:                                           ; preds = %.lr.ph.preheader, %24
  %indvars.iv = phi i64 [ 0, %.lr.ph.preheader ], [ %indvars.iv.next, %24 ]
  %19 = load ptr, ptr %0, align 8, !tbaa !220
  %20 = getelementptr inbounds nuw ptr, ptr %19, i64 %indvars.iv
  %21 = load ptr, ptr %20, align 8, !tbaa !218
  %22 = icmp eq ptr %21, null
  br i1 %22, label %24, label %23

23:                                               ; preds = %.lr.ph
  tail call void @_ZN4cvc58internal6theory11quantifiers17EnumTypeInfoStratD2Ev(ptr noundef nonnull align 8 dereferenceable(72) %21) #24
  tail call void @_ZdlPvm(ptr noundef nonnull %21, i64 noundef 72) #28
  br label %24

24:                                               ; preds = %.lr.ph, %23
  %indvars.iv.next = add nuw nsw i64 %indvars.iv, 1
  %exitcond.not = icmp eq i64 %indvars.iv.next, %wide.trip.count
  br i1 %exitcond.not, label %._crit_edge.loopexit, label %.lr.ph, !llvm.loop !299
}